; Function Attrs: mustprogress nofree norecurse nosync nounwind willreturn memory(read, inaccessiblemem: none) uwtable
define dso_local noundef ptr @_ZNK5clang8EnumDecl29getInstantiatedFromMemberEnumEv(ptr nocapture noundef nonnull readonly align 8 dereferenceable(156) %0) local_unnamed_addr #9 align 2 {
  %2 = getelementptr inbounds nuw i8, ptr %0, i64 144
  %3 = load ptr, ptr %2, align 8
  %.not = icmp eq ptr %3, null
  br i1 %.not, label %7, label %4

4:                                                ; preds = %1
  %.0.copyload.i.i.i.i = load i64, ptr %3, align 8
  %5 = and i64 %.0.copyload.i.i.i.i, -8
  %6 = inttoptr i64 %5 to ptr
  br label %7

7:                                                ; preds = %1, %4
  %.0 = phi ptr [ %6, %4 ], [ null, %1 ]
  ret ptr %.0
}